target datalayout = "e-m:e-p270:32:32-p271:32:32-p272:64:64-i64:64-i128:128-f80:128-n8:16:32:64-S128"
target triple = "x86_64-pc-linux-gnu"

@Truth6 = internal global [6 x i64] [i64 -6148914691236517206, i64 -3689348814741910324, i64 -1085102592571150096, i64 -71777214294589696, i64 -281470681808896, i64 -4294967296], align 16

; Function Attrs: inlinehint nounwind uwtable
define internal i32 @If_CluWordNum(i32 noundef %0) #3 {
  %2 = alloca i32, align 4
  store i32 %0, ptr %2, align 4, !tbaa !3
  %3 = load i32, ptr %2, align 4, !tbaa !3
  %4 = icmp sle i32 %3, 6
  br i1 %4, label %5, label %6

5:                                                ; preds = %1
  br label %10

6:                                                ; preds = %1
  %7 = load i32, ptr %2, align 4, !tbaa !3
  %8 = sub nsw i32 %7, 6
  %9 = shl i32 1, %8
  br label %10

10:                                               ; preds = %6, %5
  %11 = phi i32 [ 1, %5 ], [ %9, %6 ]
  ret i32 %11
}

; Function Attrs: nounwind uwtable
define i32 @If_CluDetectSpecialCaseCofs(ptr noundef %0, i32 noundef %1, i32 noundef %2) #0 {
  %4 = alloca i32, align 4
  %5 = alloca ptr, align 8
  %6 = alloca i32, align 4
  %7 = alloca i32, align 4
  %8 = alloca i64, align 8
  %9 = alloca i64, align 8
  %10 = alloca [6 x i32], align 16
  %11 = alloca i32, align 4
  %12 = alloca i32, align 4
  %13 = alloca i32, align 4
  %14 = alloca i32, align 4
  %15 = alloca i32, align 4
  %16 = alloca i32, align 4
  store ptr %0, ptr %5, align 8, !tbaa !51
  store i32 %1, ptr %6, align 4, !tbaa !3
  store i32 %2, ptr %7, align 4, !tbaa !3
  call void @llvm.lifetime.start.p0(i64 8, ptr %8) #11
  call void @llvm.lifetime.start.p0(i64 8, ptr %9) #11
  call void @llvm.lifetime.start.p0(i64 24, ptr %10) #11
  call void @llvm.memset.p0.i64(ptr align 16 %10, i8 0, i64 24, i1 false)
  call void @llvm.lifetime.start.p0(i64 4, ptr %11) #11
  call void @llvm.lifetime.start.p0(i64 4, ptr %12) #11
  %17 = load i32, ptr %6, align 4, !tbaa !3
  %18 = call i32 @If_CluWordNum(i32 noundef %17)
  store i32 %18, ptr %12, align 4, !tbaa !3
  %19 = load i32, ptr %7, align 4, !tbaa !3
  %20 = icmp slt i32 %19, 6
  br i1 %20, label %21, label %117

21:                                               ; preds = %3
  call void @llvm.lifetime.start.p0(i64 4, ptr %13) #11
  %22 = load i32, ptr %7, align 4, !tbaa !3
  %23 = shl i32 1, %22
  store i32 %23, ptr %13, align 4, !tbaa !3
  store i32 0, ptr %11, align 4, !tbaa !3
  br label %24

24:                                               ; preds = %113, %21
  %25 = load i32, ptr %11, align 4, !tbaa !3
  %26 = load i32, ptr %12, align 4, !tbaa !3
  %27 = icmp slt i32 %25, %26
  br i1 %27, label %28, label %116

28:                                               ; preds = %24
  %29 = load ptr, ptr %5, align 8, !tbaa !51
  %30 = load i32, ptr %11, align 4, !tbaa !3
  %31 = sext i32 %30 to i64
  %32 = getelementptr inbounds i64, ptr %29, i64 %31
  %33 = load i64, ptr %32, align 8, !tbaa !79
  %34 = load i32, ptr %7, align 4, !tbaa !3
  %35 = sext i32 %34 to i64
  %36 = getelementptr inbounds [6 x i64], ptr @Truth6, i64 0, i64 %35
  %37 = load i64, ptr %36, align 8, !tbaa !79
  %38 = xor i64 %37, -1
  %39 = and i64 %33, %38
  store i64 %39, ptr %8, align 8, !tbaa !79
  %40 = load ptr, ptr %5, align 8, !tbaa !51
  %41 = load i32, ptr %11, align 4, !tbaa !3
  %42 = sext i32 %41 to i64
  %43 = getelementptr inbounds i64, ptr %40, i64 %42
  %44 = load i64, ptr %43, align 8, !tbaa !79
  %45 = load i32, ptr %7, align 4, !tbaa !3
  %46 = sext i32 %45 to i64
  %47 = getelementptr inbounds [6 x i64], ptr @Truth6, i64 0, i64 %46
  %48 = load i64, ptr %47, align 8, !tbaa !79
  %49 = and i64 %44, %48
  %50 = load i32, ptr %13, align 4, !tbaa !3
  %51 = zext i32 %50 to i64
  %52 = lshr i64 %49, %51
  store i64 %52, ptr %9, align 8, !tbaa !79
  %53 = load i64, ptr %8, align 8, !tbaa !79
  %54 = icmp eq i64 %53, 0
  br i1 %54, label %55, label %59

55:                                               ; preds = %28
  %56 = getelementptr inbounds [6 x i32], ptr %10, i64 0, i64 0
  %57 = load i32, ptr %56, align 16, !tbaa !3
  %58 = add nsw i32 %57, 1
  store i32 %58, ptr %56, align 16, !tbaa !3
  br label %112

59:                                               ; preds = %28
  %60 = load i64, ptr %8, align 8, !tbaa !79
  %61 = load i32, ptr %7, align 4, !tbaa !3
  %62 = sext i32 %61 to i64
  %63 = getelementptr inbounds [6 x i64], ptr @Truth6, i64 0, i64 %62
  %64 = load i64, ptr %63, align 8, !tbaa !79
  %65 = xor i64 %64, -1
  %66 = icmp eq i64 %60, %65
  br i1 %66, label %67, label %71

67:                                               ; preds = %59
  %68 = getelementptr inbounds [6 x i32], ptr %10, i64 0, i64 1
  %69 = load i32, ptr %68, align 4, !tbaa !3
  %70 = add nsw i32 %69, 1
  store i32 %70, ptr %68, align 4, !tbaa !3
  br label %111

71:                                               ; preds = %59
  %72 = load i64, ptr %9, align 8, !tbaa !79
  %73 = icmp eq i64 %72, 0
  br i1 %73, label %74, label %78

74:                                               ; preds = %71
  %75 = getelementptr inbounds [6 x i32], ptr %10, i64 0, i64 2
  %76 = load i32, ptr %75, align 8, !tbaa !3
  %77 = add nsw i32 %76, 1
  store i32 %77, ptr %75, align 8, !tbaa !3
  br label %110

78:                                               ; preds = %71
  %79 = load i64, ptr %9, align 8, !tbaa !79
  %80 = load i32, ptr %7, align 4, !tbaa !3
  %81 = sext i32 %80 to i64
  %82 = getelementptr inbounds [6 x i64], ptr @Truth6, i64 0, i64 %81
  %83 = load i64, ptr %82, align 8, !tbaa !79
  %84 = xor i64 %83, -1
  %85 = icmp eq i64 %79, %84
  br i1 %85, label %86, label %90

86:                                               ; preds = %78
  %87 = getelementptr inbounds [6 x i32], ptr %10, i64 0, i64 3
  %88 = load i32, ptr %87, align 4, !tbaa !3
  %89 = add nsw i32 %88, 1
  store i32 %89, ptr %87, align 4, !tbaa !3
  br label %109

90:                                               ; preds = %78
  %91 = load i64, ptr %8, align 8, !tbaa !79
  %92 = load i64, ptr %9, align 8, !tbaa !79
  %93 = xor i64 %92, -1
  %94 = icmp eq i64 %91, %93
  br i1 %94, label %95, label %99

95:                                               ; preds = %90
  %96 = getelementptr inbounds [6 x i32], ptr %10, i64 0, i64 4
  %97 = load i32, ptr %96, align 16, !tbaa !3
  %98 = add nsw i32 %97, 1
  store i32 %98, ptr %96, align 16, !tbaa !3
  br label %108

99:                                               ; preds = %90
  %100 = load i64, ptr %8, align 8, !tbaa !79
  %101 = load i64, ptr %9, align 8, !tbaa !79
  %102 = icmp eq i64 %100, %101
  br i1 %102, label %103, label %107

103:                                              ; preds = %99
  %104 = getelementptr inbounds [6 x i32], ptr %10, i64 0, i64 5
  %105 = load i32, ptr %104, align 4, !tbaa !3
  %106 = add nsw i32 %105, 1
  store i32 %106, ptr %104, align 4, !tbaa !3
  br label %107

107:                                              ; preds = %103, %99
  br label %108

108:                                              ; preds = %107, %95
  br label %109

109:                                              ; preds = %108, %86
  br label %110

110:                                              ; preds = %109, %74
  br label %111

111:                                              ; preds = %110, %67
  br label %112

112:                                              ; preds = %111, %55
  br label %113

113:                                              ; preds = %112
  %114 = load i32, ptr %11, align 4, !tbaa !3
  %115 = add nsw i32 %114, 1
  store i32 %115, ptr %11, align 4, !tbaa !3
  br label %24, !llvm.loop !143

116:                                              ; preds = %24
  call void @llvm.lifetime.end.p0(i64 4, ptr %13) #11
  br label %210

117:                                              ; preds = %3
  call void @llvm.lifetime.start.p0(i64 4, ptr %14) #11
  call void @llvm.lifetime.start.p0(i64 4, ptr %15) #11
  %118 = load i32, ptr %7, align 4, !tbaa !3
  %119 = sub nsw i32 %118, 6
  %120 = shl i32 1, %119
  store i32 %120, ptr %15, align 4, !tbaa !3
  store i32 0, ptr %14, align 4, !tbaa !3
  br label %121

121:                                              ; preds = %202, %117
  %122 = load i32, ptr %14, align 4, !tbaa !3
  %123 = load i32, ptr %12, align 4, !tbaa !3
  %124 = icmp slt i32 %122, %123
  br i1 %124, label %125, label %207

125:                                              ; preds = %121
  store i32 0, ptr %11, align 4, !tbaa !3
  br label %126

126:                                              ; preds = %193, %125
  %127 = load i32, ptr %11, align 4, !tbaa !3
  %128 = load i32, ptr %15, align 4, !tbaa !3
  %129 = icmp slt i32 %127, %128
  br i1 %129, label %130, label %196

130:                                              ; preds = %126
  %131 = load ptr, ptr %5, align 8, !tbaa !51
  %132 = load i32, ptr %11, align 4, !tbaa !3
  %133 = sext i32 %132 to i64
  %134 = getelementptr inbounds i64, ptr %131, i64 %133
  %135 = load i64, ptr %134, align 8, !tbaa !79
  store i64 %135, ptr %8, align 8, !tbaa !79
  %136 = load ptr, ptr %5, align 8, !tbaa !51
  %137 = load i32, ptr %15, align 4, !tbaa !3
  %138 = load i32, ptr %11, align 4, !tbaa !3
  %139 = add nsw i32 %137, %138
  %140 = sext i32 %139 to i64
  %141 = getelementptr inbounds i64, ptr %136, i64 %140
  %142 = load i64, ptr %141, align 8, !tbaa !79
  store i64 %142, ptr %9, align 8, !tbaa !79
  %143 = load i64, ptr %8, align 8, !tbaa !79
  %144 = icmp eq i64 %143, 0
  br i1 %144, label %145, label %149

145:                                              ; preds = %130
  %146 = getelementptr inbounds [6 x i32], ptr %10, i64 0, i64 0
  %147 = load i32, ptr %146, align 16, !tbaa !3
  %148 = add nsw i32 %147, 1
  store i32 %148, ptr %146, align 16, !tbaa !3
  br label %192

149:                                              ; preds = %130
  %150 = load i64, ptr %8, align 8, !tbaa !79
  %151 = icmp eq i64 %150, -1
  br i1 %151, label %152, label %156

152:                                              ; preds = %149
  %153 = getelementptr inbounds [6 x i32], ptr %10, i64 0, i64 1
  %154 = load i32, ptr %153, align 4, !tbaa !3
  %155 = add nsw i32 %154, 1
  store i32 %155, ptr %153, align 4, !tbaa !3
  br label %191

156:                                              ; preds = %149
  %157 = load i64, ptr %9, align 8, !tbaa !79
  %158 = icmp eq i64 %157, 0
  br i1 %158, label %159, label %163

159:                                              ; preds = %156
  %160 = getelementptr inbounds [6 x i32], ptr %10, i64 0, i64 2
  %161 = load i32, ptr %160, align 8, !tbaa !3
  %162 = add nsw i32 %161, 1
  store i32 %162, ptr %160, align 8, !tbaa !3
  br label %190

163:                                              ; preds = %156
  %164 = load i64, ptr %9, align 8, !tbaa !79
  %165 = icmp eq i64 %164, -1
  br i1 %165, label %166, label %170

166:                                              ; preds = %163
  %167 = getelementptr inbounds [6 x i32], ptr %10, i64 0, i64 3
  %168 = load i32, ptr %167, align 4, !tbaa !3
  %169 = add nsw i32 %168, 1
  store i32 %169, ptr %167, align 4, !tbaa !3
  br label %189

170:                                              ; preds = %163
  %171 = load i64, ptr %8, align 8, !tbaa !79
  %172 = load i64, ptr %9, align 8, !tbaa !79
  %173 = xor i64 %172, -1
  %174 = icmp eq i64 %171, %173
  br i1 %174, label %175, label %179

175:                                              ; preds = %170
  %176 = getelementptr inbounds [6 x i32], ptr %10, i64 0, i64 4
  %177 = load i32, ptr %176, align 16, !tbaa !3
  %178 = add nsw i32 %177, 1
  store i32 %178, ptr %176, align 16, !tbaa !3
  br label %188

179:                                              ; preds = %170
  %180 = load i64, ptr %8, align 8, !tbaa !79
  %181 = load i64, ptr %9, align 8, !tbaa !79
  %182 = icmp eq i64 %180, %181
  br i1 %182, label %183, label %187

183:                                              ; preds = %179
  %184 = getelementptr inbounds [6 x i32], ptr %10, i64 0, i64 5
  %185 = load i32, ptr %184, align 4, !tbaa !3
  %186 = add nsw i32 %185, 1
  store i32 %186, ptr %184, align 4, !tbaa !3
  br label %187

187:                                              ; preds = %183, %179
  br label %188

188:                                              ; preds = %187, %175
  br label %189

189:                                              ; preds = %188, %166
  br label %190

190:                                              ; preds = %189, %159
  br label %191

191:                                              ; preds = %190, %152
  br label %192

192:                                              ; preds = %191, %145
  br label %193

193:                                              ; preds = %192
  %194 = load i32, ptr %11, align 4, !tbaa !3
  %195 = add nsw i32 %194, 1
  store i32 %195, ptr %11, align 4, !tbaa !3
  br label %126, !llvm.loop !144

196:                                              ; preds = %126
  %197 = load i32, ptr %15, align 4, !tbaa !3
  %198 = mul nsw i32 2, %197
  %199 = load ptr, ptr %5, align 8, !tbaa !51
  %200 = sext i32 %198 to i64
  %201 = getelementptr inbounds i64, ptr %199, i64 %200
  store ptr %201, ptr %5, align 8, !tbaa !51
  br label %202

202:                                              ; preds = %196
  %203 = load i32, ptr %15, align 4, !tbaa !3
  %204 = mul nsw i32 2, %203
  %205 = load i32, ptr %14, align 4, !tbaa !3
  %206 = add nsw i32 %205, %204
  store i32 %206, ptr %14, align 4, !tbaa !3
  br label %121, !llvm.loop !145

207:                                              ; preds = %121
  %208 = load i32, ptr %12, align 4, !tbaa !3
  %209 = sdiv i32 %208, 2
  store i32 %209, ptr %12, align 4, !tbaa !3
  call void @llvm.lifetime.end.p0(i64 4, ptr %15) #11
  call void @llvm.lifetime.end.p0(i64 4, ptr %14) #11
  br label %210

210:                                              ; preds = %207, %116
  store i32 0, ptr %11, align 4, !tbaa !3
  br label %211

211:                                              ; preds = %224, %210
  %212 = load i32, ptr %11, align 4, !tbaa !3
  %213 = icmp slt i32 %212, 5
  br i1 %213, label %214, label %227

214:                                              ; preds = %211
  %215 = load i32, ptr %11, align 4, !tbaa !3
  %216 = sext i32 %215 to i64
  %217 = getelementptr inbounds [6 x i32], ptr %10, i64 0, i64 %216
  %218 = load i32, ptr %217, align 4, !tbaa !3
  %219 = load i32, ptr %12, align 4, !tbaa !3
  %220 = icmp eq i32 %218, %219
  br i1 %220, label %221, label %223

221:                                              ; preds = %214
  %222 = load i32, ptr %11, align 4, !tbaa !3
  store i32 %222, ptr %4, align 4
  store i32 1, ptr %16, align 4
  br label %228

223:                                              ; preds = %214
  br label %224

224:                                              ; preds = %223
  %225 = load i32, ptr %11, align 4, !tbaa !3
  %226 = add nsw i32 %225, 1
  store i32 %226, ptr %11, align 4, !tbaa !3
  br label %211, !llvm.loop !146

227:                                              ; preds = %211
  store i32 -1, ptr %4, align 4
  store i32 1, ptr %16, align 4
  br label %228

228:                                              ; preds = %227, %221
  call void @llvm.lifetime.end.p0(i64 4, ptr %12) #11
  call void @llvm.lifetime.end.p0(i64 4, ptr %11) #11
  call void @llvm.lifetime.end.p0(i64 24, ptr %10) #11
  call void @llvm.lifetime.end.p0(i64 8, ptr %9) #11
  call void @llvm.lifetime.end.p0(i64 8, ptr %8) #11
  %229 = load i32, ptr %4, align 4
  ret i32 %229
}