; Function Attrs: nofree norecurse nosync nounwind memory(argmem: read) uwtable
define range(i32 -1, 5) i32 @If_CluDetectSpecialCaseCofs(ptr noundef readonly captures(none) %0, i32 noundef %1, i32 noundef %2) local_unnamed_addr #3 {
  %4 = alloca [6 x i32], align 16
  call void @llvm.lifetime.start.p0(i64 24, ptr nonnull %4) #22
  call void @llvm.memset.p0.i64(ptr noundef nonnull align 16 dereferenceable(24) %4, i8 0, i64 24, i1 false)
  %5 = icmp slt i32 %1, 7
  %6 = add nsw i32 %1, -6
  %7 = shl nuw i32 1, %6
  %8 = select i1 %5, i32 1, i32 %7
  %9 = icmp slt i32 %2, 6
  br i1 %9, label %10, label %65

10:                                               ; preds = %3
  %11 = icmp sgt i32 %8, 0
  br i1 %11, label %.lr.ph, label %.loopexit

.lr.ph:                                           ; preds = %10
  %12 = shl nuw nsw i32 1, %2
  %13 = sext i32 %2 to i64
  %14 = getelementptr inbounds [6 x i64], ptr @s_Truths6, i64 0, i64 %13
  %15 = load i64, ptr %14, align 8, !tbaa !16
  %16 = xor i64 %15, -1
  %17 = zext nneg i32 %12 to i64
  %18 = getelementptr inbounds nuw i8, ptr %4, i64 20
  %19 = getelementptr inbounds nuw i8, ptr %4, i64 16
  %20 = getelementptr inbounds nuw i8, ptr %4, i64 12
  %21 = getelementptr inbounds nuw i8, ptr %4, i64 8
  %22 = getelementptr inbounds nuw i8, ptr %4, i64 4
  %wide.trip.count135 = zext nneg i32 %8 to i64
  br label %23

23:                                               ; preds = %.lr.ph, %58
  %indvars.iv132 = phi i64 [ 0, %.lr.ph ], [ %indvars.iv.next133, %58 ]
  %24 = phi i32 [ 0, %.lr.ph ], [ %59, %58 ]
  %25 = phi i32 [ 0, %.lr.ph ], [ %60, %58 ]
  %26 = phi i32 [ 0, %.lr.ph ], [ %61, %58 ]
  %27 = phi i32 [ 0, %.lr.ph ], [ %62, %58 ]
  %28 = phi i32 [ 0, %.lr.ph ], [ %63, %58 ]
  %29 = phi i32 [ 0, %.lr.ph ], [ %64, %58 ]
  %30 = getelementptr inbounds nuw i64, ptr %0, i64 %indvars.iv132
  %31 = load i64, ptr %30, align 8, !tbaa !16
  %32 = and i64 %31, %16
  %33 = and i64 %15, %31
  %34 = lshr i64 %33, %17
  %35 = icmp eq i64 %32, 0
  br i1 %35, label %36, label %38

36:                                               ; preds = %23
  %37 = add nsw i32 %29, 1
  br label %58

38:                                               ; preds = %23
  %39 = icmp eq i64 %32, %16
  br i1 %39, label %40, label %42

40:                                               ; preds = %38
  %41 = add nsw i32 %24, 1
  br label %58

42:                                               ; preds = %38
  %43 = icmp eq i64 %34, 0
  br i1 %43, label %44, label %46

44:                                               ; preds = %42
  %45 = add nsw i32 %25, 1
  br label %58

46:                                               ; preds = %42
  %47 = icmp eq i64 %34, %16
  br i1 %47, label %48, label %50

48:                                               ; preds = %46
  %49 = add nsw i32 %26, 1
  br label %58

50:                                               ; preds = %46
  %51 = xor i64 %34, %32
  %52 = icmp eq i64 %51, -1
  br i1 %52, label %53, label %55

53:                                               ; preds = %50
  %54 = add nsw i32 %27, 1
  br label %58

55:                                               ; preds = %50
  %56 = icmp eq i64 %32, %34
  %57 = zext i1 %56 to i32
  %spec.select = add nsw i32 %28, %57
  br label %58

58:                                               ; preds = %55, %36, %44, %53, %48, %40
  %59 = phi i32 [ %24, %36 ], [ %24, %44 ], [ %24, %53 ], [ %24, %48 ], [ %41, %40 ], [ %24, %55 ]
  %60 = phi i32 [ %25, %36 ], [ %45, %44 ], [ %25, %53 ], [ %25, %48 ], [ %25, %40 ], [ %25, %55 ]
  %61 = phi i32 [ %26, %36 ], [ %26, %44 ], [ %26, %53 ], [ %49, %48 ], [ %26, %40 ], [ %26, %55 ]
  %62 = phi i32 [ %27, %36 ], [ %27, %44 ], [ %54, %53 ], [ %27, %48 ], [ %27, %40 ], [ %27, %55 ]
  %63 = phi i32 [ %28, %36 ], [ %28, %44 ], [ %28, %53 ], [ %28, %48 ], [ %28, %40 ], [ %spec.select, %55 ]
  %64 = phi i32 [ %37, %36 ], [ %29, %44 ], [ %29, %53 ], [ %29, %48 ], [ %29, %40 ], [ %29, %55 ]
  %indvars.iv.next133 = add nuw nsw i64 %indvars.iv132, 1
  %exitcond136.not = icmp eq i64 %indvars.iv.next133, %wide.trip.count135
  br i1 %exitcond136.not, label %..loopexit_crit_edge, label %23, !llvm.loop !151

65:                                               ; preds = %3
  %66 = add nsw i32 %2, -6
  %67 = shl nuw i32 1, %66
  %68 = icmp sgt i32 %8, 0
  br i1 %68, label %.preheader.lr.ph, label %114

.preheader.lr.ph:                                 ; preds = %65
  %.not = icmp eq i32 %66, 31
  %69 = getelementptr inbounds nuw i8, ptr %4, i64 4
  %70 = getelementptr inbounds nuw i8, ptr %4, i64 12
  %71 = getelementptr inbounds nuw i8, ptr %4, i64 8
  %72 = getelementptr inbounds nuw i8, ptr %4, i64 20
  %73 = getelementptr inbounds nuw i8, ptr %4, i64 16
  %74 = shl i32 2, %66
  %75 = sext i32 %74 to i64
  br i1 %.not, label %._crit_edge83, label %.preheader.us.preheader

.preheader.us.preheader:                          ; preds = %.preheader.lr.ph
  %76 = sext i32 %67 to i64
  %smax = tail call i32 @llvm.smax.i32(i32 %67, i32 1)
  %wide.trip.count = zext nneg i32 %smax to i64
  br label %.preheader.us

.preheader.us:                                    ; preds = %.preheader.us.preheader, %._crit_edge.us
  %.lcssa7798.us = phi i32 [ %105, %._crit_edge.us ], [ 0, %.preheader.us.preheader ]
  %.lcssa7595.us = phi i32 [ %106, %._crit_edge.us ], [ 0, %.preheader.us.preheader ]
  %.lcssa7392.us = phi i32 [ %107, %._crit_edge.us ], [ 0, %.preheader.us.preheader ]
  %.lcssa7189.us = phi i32 [ %108, %._crit_edge.us ], [ 0, %.preheader.us.preheader ]
  %.lcssa6986.us = phi i32 [ %109, %._crit_edge.us ], [ 0, %.preheader.us.preheader ]
  %.05282.us = phi i32 [ %112, %._crit_edge.us ], [ 0, %.preheader.us.preheader ]
  %.05381.us = phi ptr [ %111, %._crit_edge.us ], [ %0, %.preheader.us.preheader ]
  %.lcssa7980.us = phi i32 [ %110, %._crit_edge.us ], [ 0, %.preheader.us.preheader ]
  %invariant.gep = getelementptr i64, ptr %.05381.us, i64 %76
  br label %77

77:                                               ; preds = %.preheader.us, %104
  %indvars.iv = phi i64 [ 0, %.preheader.us ], [ %indvars.iv.next, %104 ]
  %78 = phi i32 [ %.lcssa7798.us, %.preheader.us ], [ %105, %104 ]
  %79 = phi i32 [ %.lcssa7595.us, %.preheader.us ], [ %106, %104 ]
  %80 = phi i32 [ %.lcssa7392.us, %.preheader.us ], [ %107, %104 ]
  %81 = phi i32 [ %.lcssa7189.us, %.preheader.us ], [ %108, %104 ]
  %82 = phi i32 [ %.lcssa6986.us, %.preheader.us ], [ %109, %104 ]
  %83 = phi i32 [ %.lcssa7980.us, %.preheader.us ], [ %110, %104 ]
  %84 = getelementptr inbounds nuw i64, ptr %.05381.us, i64 %indvars.iv
  %85 = load i64, ptr %84, align 8, !tbaa !16
  %gep = getelementptr i64, ptr %invariant.gep, i64 %indvars.iv
  %86 = load i64, ptr %gep, align 8, !tbaa !16
  switch i64 %85, label %91 [
    i64 0, label %89
    i64 -1, label %87
  ]

87:                                               ; preds = %77
  %88 = add nsw i32 %82, 1
  br label %104

89:                                               ; preds = %77
  %90 = add nsw i32 %83, 1
  br label %104

91:                                               ; preds = %77
  switch i64 %86, label %96 [
    i64 0, label %94
    i64 -1, label %92
  ]

92:                                               ; preds = %91
  %93 = add nsw i32 %81, 1
  br label %104

94:                                               ; preds = %91
  %95 = add nsw i32 %80, 1
  br label %104

96:                                               ; preds = %91
  %97 = xor i64 %86, %85
  %98 = icmp eq i64 %97, -1
  br i1 %98, label %102, label %99

99:                                               ; preds = %96
  %100 = icmp eq i64 %85, %86
  %101 = zext i1 %100 to i32
  %spec.select117 = add nsw i32 %79, %101
  br label %104

102:                                              ; preds = %96
  %103 = add nsw i32 %78, 1
  br label %104

104:                                              ; preds = %99, %102, %94, %92, %89, %87
  %105 = phi i32 [ %78, %89 ], [ %78, %94 ], [ %103, %102 ], [ %78, %92 ], [ %78, %87 ], [ %78, %99 ]
  %106 = phi i32 [ %79, %89 ], [ %79, %94 ], [ %79, %102 ], [ %79, %92 ], [ %79, %87 ], [ %spec.select117, %99 ]
  %107 = phi i32 [ %80, %89 ], [ %95, %94 ], [ %80, %102 ], [ %80, %92 ], [ %80, %87 ], [ %80, %99 ]
  %108 = phi i32 [ %81, %89 ], [ %81, %94 ], [ %81, %102 ], [ %93, %92 ], [ %81, %87 ], [ %81, %99 ]
  %109 = phi i32 [ %82, %89 ], [ %82, %94 ], [ %82, %102 ], [ %82, %92 ], [ %88, %87 ], [ %82, %99 ]
  %110 = phi i32 [ %90, %89 ], [ %83, %94 ], [ %83, %102 ], [ %83, %92 ], [ %83, %87 ], [ %83, %99 ]
  %indvars.iv.next = add nuw nsw i64 %indvars.iv, 1
  %exitcond.not = icmp eq i64 %indvars.iv.next, %wide.trip.count
  br i1 %exitcond.not, label %._crit_edge.us, label %77, !llvm.loop !152

._crit_edge.us:                                   ; preds = %104
  %111 = getelementptr inbounds i64, ptr %.05381.us, i64 %75
  %112 = add nsw i32 %.05282.us, %74
  %113 = icmp slt i32 %112, %8
  br i1 %113, label %.preheader.us, label %._crit_edge83, !llvm.loop !153

._crit_edge83:                                    ; preds = %._crit_edge.us, %.preheader.lr.ph
  %.us-phi = phi i32 [ poison, %.preheader.lr.ph ], [ %105, %._crit_edge.us ]
  %.us-phi99 = phi i32 [ poison, %.preheader.lr.ph ], [ %106, %._crit_edge.us ]
  %.us-phi100 = phi i32 [ poison, %.preheader.lr.ph ], [ %107, %._crit_edge.us ]
  %.us-phi101 = phi i32 [ poison, %.preheader.lr.ph ], [ %108, %._crit_edge.us ]
  %.us-phi102 = phi i32 [ poison, %.preheader.lr.ph ], [ %109, %._crit_edge.us ]
  %.us-phi103 = phi i32 [ poison, %.preheader.lr.ph ], [ %110, %._crit_edge.us ]
  store i32 %.us-phi102, ptr %69, align 4
  store i32 %.us-phi101, ptr %70, align 4
  store i32 %.us-phi100, ptr %71, align 8
  store i32 %.us-phi99, ptr %72, align 4
  store i32 %.us-phi, ptr %73, align 16
  br label %114

114:                                              ; preds = %._crit_edge83, %65
  %.lcssa79.lcssa = phi i32 [ %.us-phi103, %._crit_edge83 ], [ 0, %65 ]
  store i32 %.lcssa79.lcssa, ptr %4, align 16
  %115 = sdiv i32 %8, 2
  br label %116

..loopexit_crit_edge:                             ; preds = %58
  store i32 %63, ptr %18, align 4
  store i32 %62, ptr %19, align 16
  store i32 %61, ptr %20, align 4
  store i32 %60, ptr %21, align 8
  store i32 %59, ptr %22, align 4
  br label %.loopexit

.loopexit:                                        ; preds = %..loopexit_crit_edge, %10
  %.lcssa = phi i32 [ %64, %..loopexit_crit_edge ], [ 0, %10 ]
  store i32 %.lcssa, ptr %4, align 16
  br label %116

116:                                              ; preds = %.loopexit, %114
  %.054 = phi i32 [ %115, %114 ], [ %8, %.loopexit ]
  br label %117

117:                                              ; preds = %116, %121
  %indvars.iv137 = phi i64 [ 0, %116 ], [ %indvars.iv.next138, %121 ]
  %118 = getelementptr inbounds nuw [6 x i32], ptr %4, i64 0, i64 %indvars.iv137
  %119 = load i32, ptr %118, align 4, !tbaa !6
  %120 = icmp eq i32 %119, %.054
  br i1 %120, label %.split.loop.exit153, label %121

121:                                              ; preds = %117
  %indvars.iv.next138 = add nuw nsw i64 %indvars.iv137, 1
  %exitcond140.not = icmp eq i64 %indvars.iv.next138, 5
  br i1 %exitcond140.not, label %.split.loop.exit, label %117, !llvm.loop !154

.split.loop.exit153:                              ; preds = %117
  %122 = trunc nuw nsw i64 %indvars.iv137 to i32
  br label %.split.loop.exit

.split.loop.exit:                                 ; preds = %121, %.split.loop.exit153
  %.0 = phi i32 [ %122, %.split.loop.exit153 ], [ -1, %121 ]
  call void @llvm.lifetime.end.p0(i64 24, ptr nonnull %4) #22
  ret i32 %.0
}